target datalayout = "e-m:e-p270:32:32-p271:32:32-p272:64:64-i64:64-i128:128-f80:128-n8:16:32:64-S128"
target triple = "x86_64-pc-linux-gnu"

%struct.OSQPCscMatrix = type { i64, i64, ptr, ptr, ptr, i64, i64 }

; Function Attrs: nounwind uwtable
define void @csc_rmult_diag(ptr noundef %0, ptr noundef %1) #0 {
  %3 = alloca ptr, align 8
  %4 = alloca ptr, align 8
  %5 = alloca i64, align 8
  %6 = alloca i64, align 8
  %7 = alloca i64, align 8
  %8 = alloca ptr, align 8
  %9 = alloca ptr, align 8
  store ptr %0, ptr %3, align 8, !tbaa !16
  store ptr %1, ptr %4, align 8, !tbaa !3
  call void @llvm.lifetime.start.p0(i64 8, ptr %5) #3
  call void @llvm.lifetime.start.p0(i64 8, ptr %6) #3
  call void @llvm.lifetime.start.p0(i64 8, ptr %7) #3
  %10 = load ptr, ptr %3, align 8, !tbaa !16
  %11 = getelementptr inbounds nuw %struct.OSQPCscMatrix, ptr %10, i32 0, i32 1
  %12 = load i64, ptr %11, align 8, !tbaa !24
  store i64 %12, ptr %7, align 8, !tbaa !10
  call void @llvm.lifetime.start.p0(i64 8, ptr %8) #3
  %13 = load ptr, ptr %3, align 8, !tbaa !16
  %14 = getelementptr inbounds nuw %struct.OSQPCscMatrix, ptr %13, i32 0, i32 2
  %15 = load ptr, ptr %14, align 8, !tbaa !23
  store ptr %15, ptr %8, align 8, !tbaa !17
  call void @llvm.lifetime.start.p0(i64 8, ptr %9) #3
  %16 = load ptr, ptr %3, align 8, !tbaa !16
  %17 = getelementptr inbounds nuw %struct.OSQPCscMatrix, ptr %16, i32 0, i32 4
  %18 = load ptr, ptr %17, align 8, !tbaa !19
  store ptr %18, ptr %9, align 8, !tbaa !3
  store i64 0, ptr %5, align 8, !tbaa !10
  br label %19

19:                                               ; preds = %50, %2
  %20 = load i64, ptr %5, align 8, !tbaa !10
  %21 = load i64, ptr %7, align 8, !tbaa !10
  %22 = icmp slt i64 %20, %21
  br i1 %22, label %23, label %53

23:                                               ; preds = %19
  %24 = load ptr, ptr %8, align 8, !tbaa !17
  %25 = load i64, ptr %5, align 8, !tbaa !10
  %26 = getelementptr inbounds i64, ptr %24, i64 %25
  %27 = load i64, ptr %26, align 8, !tbaa !10
  store i64 %27, ptr %6, align 8, !tbaa !10
  br label %28

28:                                               ; preds = %46, %23
  %29 = load i64, ptr %6, align 8, !tbaa !10
  %30 = load ptr, ptr %8, align 8, !tbaa !17
  %31 = load i64, ptr %5, align 8, !tbaa !10
  %32 = add nsw i64 %31, 1
  %33 = getelementptr inbounds i64, ptr %30, i64 %32
  %34 = load i64, ptr %33, align 8, !tbaa !10
  %35 = icmp slt i64 %29, %34
  br i1 %35, label %36, label %49

36:                                               ; preds = %28
  %37 = load ptr, ptr %4, align 8, !tbaa !3
  %38 = load i64, ptr %5, align 8, !tbaa !10
  %39 = getelementptr inbounds double, ptr %37, i64 %38
  %40 = load double, ptr %39, align 8, !tbaa !8
  %41 = load ptr, ptr %9, align 8, !tbaa !3
  %42 = load i64, ptr %6, align 8, !tbaa !10
  %43 = getelementptr inbounds double, ptr %41, i64 %42
  %44 = load double, ptr %43, align 8, !tbaa !8
  %45 = fmul double %44, %40
  store double %45, ptr %43, align 8, !tbaa !8
  br label %46

46:                                               ; preds = %36
  %47 = load i64, ptr %6, align 8, !tbaa !10
  %48 = add nsw i64 %47, 1
  store i64 %48, ptr %6, align 8, !tbaa !10
  br label %28, !llvm.loop !29

49:                                               ; preds = %28
  br label %50

50:                                               ; preds = %49
  %51 = load i64, ptr %5, align 8, !tbaa !10
  %52 = add nsw i64 %51, 1
  store i64 %52, ptr %5, align 8, !tbaa !10
  br label %19, !llvm.loop !30

53:                                               ; preds = %19
  call void @llvm.lifetime.end.p0(i64 8, ptr %9) #3
  call void @llvm.lifetime.end.p0(i64 8, ptr %8) #3
  call void @llvm.lifetime.end.p0(i64 8, ptr %7) #3
  call void @llvm.lifetime.end.p0(i64 8, ptr %6) #3
  call void @llvm.lifetime.end.p0(i64 8, ptr %5) #3
  ret void
}