; Function Attrs: nofree norecurse nosync nounwind memory(readwrite, inaccessiblemem: none) uwtable
define void @csc_rmult_diag(ptr noundef readonly captures(none) %0, ptr noundef readonly captures(none) %1) local_unnamed_addr #3 {
  %3 = getelementptr inbounds nuw i8, ptr %0, i64 8
  %4 = load i64, ptr %3, align 8, !tbaa !21
  %5 = getelementptr inbounds nuw i8, ptr %0, i64 16
  %6 = load ptr, ptr %5, align 8, !tbaa !20
  %7 = getelementptr inbounds nuw i8, ptr %0, i64 32
  %8 = load ptr, ptr %7, align 8, !tbaa !11
  %9 = icmp sgt i64 %4, 0
  br i1 %9, label %.lr.ph18.preheader, label %._crit_edge

.lr.ph18.preheader:                               ; preds = %2
  %.pre = load i64, ptr %6, align 8, !tbaa !17
  br label %.lr.ph18

.loopexit:                                        ; preds = %16, %.lr.ph18
  %exitcond19.not = icmp eq i64 %11, %4
  br i1 %exitcond19.not, label %._crit_edge, label %.lr.ph18, !llvm.loop !26

.lr.ph18:                                         ; preds = %.lr.ph18.preheader, %.loopexit
  %10 = phi i64 [ %13, %.loopexit ], [ %.pre, %.lr.ph18.preheader ]
  %.017 = phi i64 [ %11, %.loopexit ], [ 0, %.lr.ph18.preheader ]
  %11 = add nuw nsw i64 %.017, 1
  %12 = getelementptr inbounds nuw i64, ptr %6, i64 %11
  %13 = load i64, ptr %12, align 8, !tbaa !17
  %14 = icmp slt i64 %10, %13
  br i1 %14, label %.lr.ph, label %.loopexit

.lr.ph:                                           ; preds = %.lr.ph18
  %15 = getelementptr inbounds nuw double, ptr %1, i64 %.017
  br label %16

16:                                               ; preds = %.lr.ph, %16
  %.01516 = phi i64 [ %10, %.lr.ph ], [ %21, %16 ]
  %17 = load double, ptr %15, align 8, !tbaa !3
  %18 = getelementptr inbounds double, ptr %8, i64 %.01516
  %19 = load double, ptr %18, align 8, !tbaa !3
  %20 = fmul double %17, %19
  store double %20, ptr %18, align 8, !tbaa !3
  %21 = add nsw i64 %.01516, 1
  %exitcond.not = icmp eq i64 %21, %13
  br i1 %exitcond.not, label %.loopexit, label %16, !llvm.loop !27

._crit_edge:                                      ; preds = %.loopexit, %2
  ret void
}